target datalayout = "e-m:e-p270:32:32-p271:32:32-p272:64:64-i64:64-i128:128-f80:128-n8:16:32:64-S128"
target triple = "x86_64-pc-linux-gnu"

%struct.OutputPluginCallbacks = type { ptr, ptr, ptr, ptr, ptr, ptr, ptr, ptr, ptr, ptr, ptr, ptr, ptr, ptr, ptr, ptr, ptr, ptr, ptr, ptr, ptr }
%struct.LogicalDecodingContext = type { ptr, ptr, ptr, ptr, ptr, i8, %struct.OutputPluginCallbacks, %struct.OutputPluginOptions, ptr, ptr, ptr, ptr, ptr, ptr, ptr, i8, i8, i8, i8, i8, i64, i32, i8, i8 }
%struct.OutputPluginOptions = type { i32, i8 }
%struct.ReorderBufferTXN = type { i32, i32, i32, ptr, i64, i64, i64, ptr, i64, i16, i64, %union.anon, ptr, i64, %struct.dlist_node, ptr, i32, i64, i64, %struct.dlist_head, %struct.dlist_head, i64, ptr, ptr, %struct.dlist_head, i32, i32, ptr, %struct.dlist_node, %struct.dlist_node, %struct.pairingheap_node, i64, i64, ptr }
%union.anon = type { i64 }
%struct.dlist_head = type { %struct.dlist_node }
%struct.dlist_node = type { ptr, ptr }
%struct.pairingheap_node = type { ptr, ptr, ptr }

; Function Attrs: nounwind uwtable
define internal void @send_repl_origin(ptr noundef %0, i16 noundef zeroext %1, i64 noundef %2, i1 noundef zeroext %3) #0 {
  %5 = alloca ptr, align 8
  %6 = alloca i16, align 2
  %7 = alloca i64, align 8
  %8 = alloca i8, align 1
  %9 = alloca ptr, align 8
  store ptr %0, ptr %5, align 8
  store i16 %1, ptr %6, align 2
  store i64 %2, ptr %7, align 8
  %10 = zext i1 %3 to i8
  store i8 %10, ptr %8, align 1
  %11 = load i8, ptr %8, align 1, !range !3, !noundef !4
  %12 = trunc i8 %11 to i1
  br i1 %12, label %13, label %25

13:                                               ; preds = %4
  call void @llvm.lifetime.start.p0(i64 8, ptr %9) #10
  %14 = load i16, ptr %6, align 2
  %15 = call zeroext i1 @replorigin_by_oid(i16 noundef zeroext %14, i1 noundef zeroext true, ptr noundef %9)
  br i1 %15, label %16, label %24

16:                                               ; preds = %13
  %17 = load ptr, ptr %5, align 8
  call void @OutputPluginWrite(ptr noundef %17, i1 noundef zeroext false)
  %18 = load ptr, ptr %5, align 8
  call void @OutputPluginPrepareWrite(ptr noundef %18, i1 noundef zeroext true)
  %19 = load ptr, ptr %5, align 8
  %20 = getelementptr inbounds nuw %struct.LogicalDecodingContext, ptr %19, i32 0, i32 12
  %21 = load ptr, ptr %20, align 8
  %22 = load ptr, ptr %9, align 8
  %23 = load i64, ptr %7, align 8
  call void @logicalrep_write_origin(ptr noundef %21, ptr noundef %22, i64 noundef %23)
  br label %24

24:                                               ; preds = %16, %13
  call void @llvm.lifetime.end.p0(i64 8, ptr %9) #10
  br label %25

25:                                               ; preds = %24, %4
  ret void
}

; Function Attrs: nounwind uwtable
define internal void @pgoutput_begin_prepare_txn(ptr noundef %0, ptr noundef %1) #0 {
  %3 = alloca ptr, align 8
  %4 = alloca ptr, align 8
  %5 = alloca i8, align 1
  store ptr %0, ptr %3, align 8
  store ptr %1, ptr %4, align 8
  call void @llvm.lifetime.start.p0(i64 1, ptr %5) #10
  %6 = load ptr, ptr %4, align 8
  %7 = getelementptr inbounds nuw %struct.ReorderBufferTXN, ptr %6, i32 0, i32 9
  %8 = load i16, ptr %7, align 8
  %9 = zext i16 %8 to i32
  %10 = icmp ne i32 %9, 0
  %11 = zext i1 %10 to i8
  store i8 %11, ptr %5, align 1
  %12 = load ptr, ptr %3, align 8
  %13 = load i8, ptr %5, align 1, !range !3, !noundef !4
  %14 = trunc i8 %13 to i1
  %15 = xor i1 %14, true
  call void @OutputPluginPrepareWrite(ptr noundef %12, i1 noundef zeroext %15)
  %16 = load ptr, ptr %3, align 8
  %17 = getelementptr inbounds nuw %struct.LogicalDecodingContext, ptr %16, i32 0, i32 12
  %18 = load ptr, ptr %17, align 8
  %19 = load ptr, ptr %4, align 8
  call void @logicalrep_write_begin_prepare(ptr noundef %18, ptr noundef %19)
  %20 = load ptr, ptr %3, align 8
  %21 = load ptr, ptr %4, align 8
  %22 = getelementptr inbounds nuw %struct.ReorderBufferTXN, ptr %21, i32 0, i32 9
  %23 = load i16, ptr %22, align 8
  %24 = load ptr, ptr %4, align 8
  %25 = getelementptr inbounds nuw %struct.ReorderBufferTXN, ptr %24, i32 0, i32 10
  %26 = load i64, ptr %25, align 8
  %27 = load i8, ptr %5, align 1, !range !3, !noundef !4
  %28 = trunc i8 %27 to i1
  call void @send_repl_origin(ptr noundef %20, i16 noundef zeroext %23, i64 noundef %26, i1 noundef zeroext %28)
  %29 = load ptr, ptr %3, align 8
  call void @OutputPluginWrite(ptr noundef %29, i1 noundef zeroext true)
  call void @llvm.lifetime.end.p0(i64 1, ptr %5) #10
  ret void
}