; Function Attrs: nounwind uwtable
define internal void @pgoutput_begin_prepare_txn(ptr noundef %0, ptr noundef %1) #2 {
  %3 = alloca ptr, align 8
  %4 = getelementptr inbounds nuw i8, ptr %1, i64 64
  %5 = load i16, ptr %4, align 8
  %.not = icmp eq i16 %5, 0
  tail call void @OutputPluginPrepareWrite(ptr noundef %0, i1 noundef zeroext %.not) #13
  %6 = getelementptr inbounds nuw i8, ptr %0, i64 256
  %7 = load ptr, ptr %6, align 8
  tail call void @logicalrep_write_begin_prepare(ptr noundef %7, ptr noundef %1) #13
  %8 = getelementptr inbounds nuw i8, ptr %1, i64 72
  %9 = load i64, ptr %8, align 8
  br i1 %.not, label %send_repl_origin.exit, label %10

10:                                               ; preds = %2
  %11 = load i16, ptr %4, align 8
  call void @llvm.lifetime.start.p0(i64 8, ptr nonnull %3) #13
  %12 = call zeroext i1 @replorigin_by_oid(i16 noundef zeroext %11, i1 noundef zeroext true, ptr noundef nonnull %3) #13
  br i1 %12, label %13, label %16

13:                                               ; preds = %10
  call void @OutputPluginWrite(ptr noundef nonnull %0, i1 noundef zeroext false) #13
  call void @OutputPluginPrepareWrite(ptr noundef nonnull %0, i1 noundef zeroext true) #13
  %14 = load ptr, ptr %6, align 8
  %15 = load ptr, ptr %3, align 8
  call void @logicalrep_write_origin(ptr noundef %14, ptr noundef %15, i64 noundef %9) #13
  br label %16

16:                                               ; preds = %13, %10
  call void @llvm.lifetime.end.p0(i64 8, ptr nonnull %3) #13
  br label %send_repl_origin.exit

send_repl_origin.exit:                            ; preds = %2, %16
  call void @OutputPluginWrite(ptr noundef nonnull %0, i1 noundef zeroext true) #13
  ret void
}